; Function Attrs: nounwind uwtable
define hidden noundef i32 @getMidiDeviceName(i32 noundef %0, i32 noundef %1, ptr noundef %2, i32 noundef %3) local_unnamed_addr #0 {
  %5 = alloca %struct.tag_ALSA_MIDIDeviceDescription, align 8
  store i32 %1, ptr %5, align 8
  %6 = getelementptr inbounds i8, ptr %5, i64 4
  store i32 200, ptr %6, align 4
  %7 = tail call noalias dereferenceable_or_null(201) ptr @calloc(i64 noundef 201, i64 noundef 1) #13
  %8 = getelementptr inbounds i8, ptr %5, i64 16
  store ptr %7, ptr %8, align 8
  %9 = tail call noalias dereferenceable_or_null(201) ptr @calloc(i64 noundef 201, i64 noundef 1) #13
  %10 = getelementptr inbounds i8, ptr %5, i64 24
  store ptr %9, ptr %10, align 8
  %.not.i = icmp ne ptr %7, null
  %.not9.i = icmp ne ptr %9, null
  %or.cond.i.not = and i1 %.not.i, %.not9.i
  br i1 %or.cond.i.not, label %11, label %20

11:                                               ; preds = %4
  tail call void (...) @initAlsaSupport() #12
  %12 = call fastcc i32 @iterateRawmidiDevices(i32 noundef %0, ptr noundef nonnull @deviceInfoIterator, ptr noundef nonnull %5)
  %13 = load i32, ptr %5, align 8
  %14 = icmp eq i32 %13, 0
  %.pre = load ptr, ptr %8, align 8
  br i1 %14, label %15, label %20

15:                                               ; preds = %11
  %16 = add i32 %3, -1
  %17 = zext i32 %16 to i64
  %18 = call ptr @strncpy(ptr noundef %2, ptr noundef %.pre, i64 noundef %17) #12
  %19 = getelementptr inbounds i8, ptr %2, i64 %17
  store i8 0, ptr %19, align 1
  br label %20

20:                                               ; preds = %11, %15, %4
  %21 = phi ptr [ %.pre, %15 ], [ %.pre, %11 ], [ %7, %4 ]
  %.0 = phi i32 [ 0, %15 ], [ -11112, %11 ], [ -11115, %4 ]
  %.not.i10 = icmp eq ptr %21, null
  br i1 %.not.i10, label %23, label %22

22:                                               ; preds = %20
  call void @free(ptr noundef nonnull %21) #12
  br label %23

23:                                               ; preds = %22, %20
  %24 = load ptr, ptr %10, align 8
  %.not5.i = icmp eq ptr %24, null
  br i1 %.not5.i, label %freeMIDIDeviceDescription.exit, label %25

25:                                               ; preds = %23
  call void @free(ptr noundef nonnull %24) #12
  br label %freeMIDIDeviceDescription.exit

freeMIDIDeviceDescription.exit:                   ; preds = %23, %25
  ret i32 %.0
}